target datalayout = "e-m:e-p270:32:32-p271:32:32-p272:64:64-i64:64-i128:128-f80:128-n8:16:32:64-S128"
target triple = "x86_64-pc-linux-gnu"

%struct._zend_op = type { ptr, %union._znode_op, %union._znode_op, %union._znode_op, i32, i32, i8, i8, i8, i8 }
%union._znode_op = type { i32 }
%struct._zend_op_array = type { i8, [3 x i8], i32, ptr, ptr, ptr, i32, i32, ptr, ptr, ptr, ptr, i32, ptr, i32, i32, i32, ptr, ptr, ptr, ptr, ptr, i32, i32, ptr, ptr, ptr, i32, i32, i32, i32, ptr, ptr, [6 x ptr] }
%struct._zval_struct = type { %union._zend_value, %union.anon, %union.anon.2 }
%union._zend_value = type { i64 }
%union.anon = type { i32 }
%union.anon.2 = type { i32 }
%struct.anon.0 = type { i8, i8, %union.anon.1 }
%union.anon.1 = type { i16 }

; Function Attrs: alwaysinline nounwind uwtable
define internal zeroext i8 @zval_get_type(ptr noundef %0) #1 {
  %2 = alloca ptr, align 8
  store ptr %0, ptr %2, align 8, !tbaa !107
  %3 = load ptr, ptr %2, align 8, !tbaa !107
  %4 = getelementptr inbounds nuw %struct._zval_struct, ptr %3, i32 0, i32 1
  %5 = getelementptr inbounds nuw %struct.anon.0, ptr %4, i32 0, i32 0
  %6 = load i8, ptr %5, align 8, !tbaa !19
  ret i8 %6
}

; Function Attrs: nounwind uwtable
define internal i32 @find_adjusted_tmp_var(ptr noundef %0, i32 noundef %1, ptr noundef %2, i32 noundef %3, ptr noundef %4) #0 {
  %6 = alloca i32, align 4
  %7 = alloca ptr, align 8
  %8 = alloca i32, align 4
  %9 = alloca ptr, align 8
  %10 = alloca i32, align 4
  %11 = alloca ptr, align 8
  %12 = alloca ptr, align 8
  %13 = alloca ptr, align 8
  %14 = alloca i32, align 4
  store ptr %0, ptr %7, align 8, !tbaa !4
  store i32 %1, ptr %8, align 4, !tbaa !11
  store ptr %2, ptr %9, align 8, !tbaa !9
  store i32 %3, ptr %10, align 4, !tbaa !11
  store ptr %4, ptr %11, align 8, !tbaa !74
  call void @llvm.lifetime.start.p0(i64 8, ptr %12) #13
  %15 = load ptr, ptr %9, align 8, !tbaa !9
  store ptr %15, ptr %12, align 8, !tbaa !9
  call void @llvm.lifetime.start.p0(i64 8, ptr %13) #13
  br label %16

16:                                               ; preds = %36, %5
  %17 = load ptr, ptr %12, align 8, !tbaa !9
  %18 = load ptr, ptr %7, align 8, !tbaa !4
  %19 = getelementptr inbounds nuw %struct._zend_op_array, ptr %18, i32 0, i32 17
  %20 = load ptr, ptr %19, align 8, !tbaa !102
  %21 = icmp ne ptr %17, %20
  br i1 %21, label %22, label %271

22:                                               ; preds = %16
  %23 = load ptr, ptr %12, align 8, !tbaa !9
  %24 = getelementptr inbounds %struct._zend_op, ptr %23, i32 -1
  store ptr %24, ptr %12, align 8, !tbaa !9
  %25 = load ptr, ptr %12, align 8, !tbaa !9
  %26 = getelementptr inbounds nuw %struct._zend_op, ptr %25, i32 0, i32 9
  %27 = load i8, ptr %26, align 1, !tbaa !24
  %28 = zext i8 %27 to i32
  %29 = icmp ne i32 %28, 2
  br i1 %29, label %36, label %30

30:                                               ; preds = %22
  %31 = load ptr, ptr %12, align 8, !tbaa !9
  %32 = getelementptr inbounds nuw %struct._zend_op, ptr %31, i32 0, i32 3
  %33 = load i32, ptr %32, align 8, !tbaa !19
  %34 = load i32, ptr %10, align 4, !tbaa !11
  %35 = icmp ne i32 %33, %34
  br i1 %35, label %36, label %37

36:                                               ; preds = %30, %22
  br label %16

37:                                               ; preds = %30
  %38 = load ptr, ptr %12, align 8, !tbaa !9
  %39 = getelementptr inbounds nuw %struct._zend_op, ptr %38, i32 0, i32 6
  %40 = load i8, ptr %39, align 4, !tbaa !25
  %41 = zext i8 %40 to i32
  %42 = icmp eq i32 %41, 37
  br i1 %42, label %43, label %59

43:                                               ; preds = %37
  %44 = load ptr, ptr %12, align 8, !tbaa !9
  %45 = getelementptr inbounds nuw %struct._zend_op, ptr %44, i32 0, i32 7
  %46 = load i8, ptr %45, align 1, !tbaa !17
  %47 = zext i8 %46 to i32
  %48 = icmp eq i32 %47, 8
  br i1 %48, label %49, label %58

49:                                               ; preds = %43
  %50 = load ptr, ptr %11, align 8, !tbaa !74
  store i64 -1, ptr %50, align 8, !tbaa !83
  %51 = load ptr, ptr %12, align 8, !tbaa !9
  %52 = getelementptr inbounds nuw %struct._zend_op, ptr %51, i32 0, i32 1
  %53 = load i32, ptr %52, align 8, !tbaa !19
  %54 = zext i32 %53 to i64
  %55 = udiv i64 %54, 16
  %56 = sub i64 %55, 5
  %57 = trunc i64 %56 to i32
  store i32 %57, ptr %6, align 4
  store i32 1, ptr %14, align 4
  br label %272

58:                                               ; preds = %43
  br label %270

59:                                               ; preds = %37
  %60 = load ptr, ptr %12, align 8, !tbaa !9
  %61 = getelementptr inbounds nuw %struct._zend_op, ptr %60, i32 0, i32 6
  %62 = load i8, ptr %61, align 4, !tbaa !25
  %63 = zext i8 %62 to i32
  %64 = icmp eq i32 %63, 36
  br i1 %64, label %65, label %81

65:                                               ; preds = %59
  %66 = load ptr, ptr %12, align 8, !tbaa !9
  %67 = getelementptr inbounds nuw %struct._zend_op, ptr %66, i32 0, i32 7
  %68 = load i8, ptr %67, align 1, !tbaa !17
  %69 = zext i8 %68 to i32
  %70 = icmp eq i32 %69, 8
  br i1 %70, label %71, label %80

71:                                               ; preds = %65
  %72 = load ptr, ptr %11, align 8, !tbaa !74
  store i64 1, ptr %72, align 8, !tbaa !83
  %73 = load ptr, ptr %12, align 8, !tbaa !9
  %74 = getelementptr inbounds nuw %struct._zend_op, ptr %73, i32 0, i32 1
  %75 = load i32, ptr %74, align 8, !tbaa !19
  %76 = zext i32 %75 to i64
  %77 = udiv i64 %76, 16
  %78 = sub i64 %77, 5
  %79 = trunc i64 %78 to i32
  store i32 %79, ptr %6, align 4
  store i32 1, ptr %14, align 4
  br label %272

80:                                               ; preds = %65
  br label %269

81:                                               ; preds = %59
  %82 = load ptr, ptr %12, align 8, !tbaa !9
  %83 = getelementptr inbounds nuw %struct._zend_op, ptr %82, i32 0, i32 6
  %84 = load i8, ptr %83, align 4, !tbaa !25
  %85 = zext i8 %84 to i32
  %86 = icmp eq i32 %85, 1
  br i1 %86, label %87, label %207

87:                                               ; preds = %81
  %88 = load ptr, ptr %12, align 8, !tbaa !9
  %89 = getelementptr inbounds nuw %struct._zend_op, ptr %88, i32 0, i32 7
  %90 = load i8, ptr %89, align 1, !tbaa !17
  %91 = zext i8 %90 to i32
  %92 = icmp eq i32 %91, 8
  br i1 %92, label %93, label %146

93:                                               ; preds = %87
  %94 = load ptr, ptr %12, align 8, !tbaa !9
  %95 = getelementptr inbounds nuw %struct._zend_op, ptr %94, i32 0, i32 8
  %96 = load i8, ptr %95, align 2, !tbaa !22
  %97 = zext i8 %96 to i32
  %98 = icmp eq i32 %97, 1
  br i1 %98, label %99, label %146

99:                                               ; preds = %93
  %100 = load ptr, ptr %7, align 8, !tbaa !4
  %101 = getelementptr inbounds nuw %struct._zend_op_array, ptr %100, i32 0, i32 2
  %102 = load i32, ptr %101, align 4, !tbaa !30
  %103 = and i32 %102, 33554432
  %104 = icmp ne i32 %103, 0
  br i1 %104, label %105, label %112

105:                                              ; preds = %99
  %106 = load ptr, ptr %12, align 8, !tbaa !9
  %107 = load ptr, ptr %12, align 8, !tbaa !9
  %108 = getelementptr inbounds nuw %struct._zend_op, ptr %107, i32 0, i32 2
  %109 = load i32, ptr %108, align 4, !tbaa !19
  %110 = sext i32 %109 to i64
  %111 = getelementptr inbounds i8, ptr %106, i64 %110
  br label %121

112:                                              ; preds = %99
  %113 = load ptr, ptr %7, align 8, !tbaa !4
  %114 = getelementptr inbounds nuw %struct._zend_op_array, ptr %113, i32 0, i32 31
  %115 = load ptr, ptr %114, align 8, !tbaa !106
  %116 = load ptr, ptr %12, align 8, !tbaa !9
  %117 = getelementptr inbounds nuw %struct._zend_op, ptr %116, i32 0, i32 2
  %118 = load i32, ptr %117, align 4, !tbaa !19
  %119 = zext i32 %118 to i64
  %120 = getelementptr inbounds nuw %struct._zval_struct, ptr %115, i64 %119
  br label %121

121:                                              ; preds = %112, %105
  %122 = phi ptr [ %111, %105 ], [ %120, %112 ]
  store ptr %122, ptr %13, align 8, !tbaa !107
  %123 = load ptr, ptr %13, align 8, !tbaa !107
  %124 = call zeroext i8 @zval_get_type(ptr noundef %123)
  %125 = zext i8 %124 to i32
  %126 = icmp eq i32 %125, 4
  br i1 %126, label %127, label %145

127:                                              ; preds = %121
  %128 = load ptr, ptr %13, align 8, !tbaa !107
  %129 = getelementptr inbounds nuw %struct._zval_struct, ptr %128, i32 0, i32 0
  %130 = load i64, ptr %129, align 8, !tbaa !19
  %131 = icmp ne i64 %130, -9223372036854775808
  br i1 %131, label %132, label %145

132:                                              ; preds = %127
  %133 = load ptr, ptr %13, align 8, !tbaa !107
  %134 = getelementptr inbounds nuw %struct._zval_struct, ptr %133, i32 0, i32 0
  %135 = load i64, ptr %134, align 8, !tbaa !19
  %136 = sub nsw i64 0, %135
  %137 = load ptr, ptr %11, align 8, !tbaa !74
  store i64 %136, ptr %137, align 8, !tbaa !83
  %138 = load ptr, ptr %12, align 8, !tbaa !9
  %139 = getelementptr inbounds nuw %struct._zend_op, ptr %138, i32 0, i32 1
  %140 = load i32, ptr %139, align 8, !tbaa !19
  %141 = zext i32 %140 to i64
  %142 = udiv i64 %141, 16
  %143 = sub i64 %142, 5
  %144 = trunc i64 %143 to i32
  store i32 %144, ptr %6, align 4
  store i32 1, ptr %14, align 4
  br label %272

145:                                              ; preds = %127, %121
  br label %206

146:                                              ; preds = %93, %87
  %147 = load ptr, ptr %12, align 8, !tbaa !9
  %148 = getelementptr inbounds nuw %struct._zend_op, ptr %147, i32 0, i32 8
  %149 = load i8, ptr %148, align 2, !tbaa !22
  %150 = zext i8 %149 to i32
  %151 = icmp eq i32 %150, 8
  br i1 %151, label %152, label %205

152:                                              ; preds = %146
  %153 = load ptr, ptr %12, align 8, !tbaa !9
  %154 = getelementptr inbounds nuw %struct._zend_op, ptr %153, i32 0, i32 7
  %155 = load i8, ptr %154, align 1, !tbaa !17
  %156 = zext i8 %155 to i32
  %157 = icmp eq i32 %156, 1
  br i1 %157, label %158, label %205

158:                                              ; preds = %152
  %159 = load ptr, ptr %7, align 8, !tbaa !4
  %160 = getelementptr inbounds nuw %struct._zend_op_array, ptr %159, i32 0, i32 2
  %161 = load i32, ptr %160, align 4, !tbaa !30
  %162 = and i32 %161, 33554432
  %163 = icmp ne i32 %162, 0
  br i1 %163, label %164, label %171

164:                                              ; preds = %158
  %165 = load ptr, ptr %12, align 8, !tbaa !9
  %166 = load ptr, ptr %12, align 8, !tbaa !9
  %167 = getelementptr inbounds nuw %struct._zend_op, ptr %166, i32 0, i32 1
  %168 = load i32, ptr %167, align 8, !tbaa !19
  %169 = sext i32 %168 to i64
  %170 = getelementptr inbounds i8, ptr %165, i64 %169
  br label %180

171:                                              ; preds = %158
  %172 = load ptr, ptr %7, align 8, !tbaa !4
  %173 = getelementptr inbounds nuw %struct._zend_op_array, ptr %172, i32 0, i32 31
  %174 = load ptr, ptr %173, align 8, !tbaa !106
  %175 = load ptr, ptr %12, align 8, !tbaa !9
  %176 = getelementptr inbounds nuw %struct._zend_op, ptr %175, i32 0, i32 1
  %177 = load i32, ptr %176, align 8, !tbaa !19
  %178 = zext i32 %177 to i64
  %179 = getelementptr inbounds nuw %struct._zval_struct, ptr %174, i64 %178
  br label %180

180:                                              ; preds = %171, %164
  %181 = phi ptr [ %170, %164 ], [ %179, %171 ]
  store ptr %181, ptr %13, align 8, !tbaa !107
  %182 = load ptr, ptr %13, align 8, !tbaa !107
  %183 = call zeroext i8 @zval_get_type(ptr noundef %182)
  %184 = zext i8 %183 to i32
  %185 = icmp eq i32 %184, 4
  br i1 %185, label %186, label %204

186:                                              ; preds = %180
  %187 = load ptr, ptr %13, align 8, !tbaa !107
  %188 = getelementptr inbounds nuw %struct._zval_struct, ptr %187, i32 0, i32 0
  %189 = load i64, ptr %188, align 8, !tbaa !19
  %190 = icmp ne i64 %189, -9223372036854775808
  br i1 %190, label %191, label %204

191:                                              ; preds = %186
  %192 = load ptr, ptr %13, align 8, !tbaa !107
  %193 = getelementptr inbounds nuw %struct._zval_struct, ptr %192, i32 0, i32 0
  %194 = load i64, ptr %193, align 8, !tbaa !19
  %195 = sub nsw i64 0, %194
  %196 = load ptr, ptr %11, align 8, !tbaa !74
  store i64 %195, ptr %196, align 8, !tbaa !83
  %197 = load ptr, ptr %12, align 8, !tbaa !9
  %198 = getelementptr inbounds nuw %struct._zend_op, ptr %197, i32 0, i32 2
  %199 = load i32, ptr %198, align 4, !tbaa !19
  %200 = zext i32 %199 to i64
  %201 = udiv i64 %200, 16
  %202 = sub i64 %201, 5
  %203 = trunc i64 %202 to i32
  store i32 %203, ptr %6, align 4
  store i32 1, ptr %14, align 4
  br label %272

204:                                              ; preds = %186, %180
  br label %205

205:                                              ; preds = %204, %152, %146
  br label %206

206:                                              ; preds = %205, %145
  br label %268

207:                                              ; preds = %81
  %208 = load ptr, ptr %12, align 8, !tbaa !9
  %209 = getelementptr inbounds nuw %struct._zend_op, ptr %208, i32 0, i32 6
  %210 = load i8, ptr %209, align 4, !tbaa !25
  %211 = zext i8 %210 to i32
  %212 = icmp eq i32 %211, 2
  br i1 %212, label %213, label %267

213:                                              ; preds = %207
  %214 = load ptr, ptr %12, align 8, !tbaa !9
  %215 = getelementptr inbounds nuw %struct._zend_op, ptr %214, i32 0, i32 7
  %216 = load i8, ptr %215, align 1, !tbaa !17
  %217 = zext i8 %216 to i32
  %218 = icmp eq i32 %217, 8
  br i1 %218, label %219, label %266

219:                                              ; preds = %213
  %220 = load ptr, ptr %12, align 8, !tbaa !9
  %221 = getelementptr inbounds nuw %struct._zend_op, ptr %220, i32 0, i32 8
  %222 = load i8, ptr %221, align 2, !tbaa !22
  %223 = zext i8 %222 to i32
  %224 = icmp eq i32 %223, 1
  br i1 %224, label %225, label %266

225:                                              ; preds = %219
  %226 = load ptr, ptr %7, align 8, !tbaa !4
  %227 = getelementptr inbounds nuw %struct._zend_op_array, ptr %226, i32 0, i32 2
  %228 = load i32, ptr %227, align 4, !tbaa !30
  %229 = and i32 %228, 33554432
  %230 = icmp ne i32 %229, 0
  br i1 %230, label %231, label %238

231:                                              ; preds = %225
  %232 = load ptr, ptr %12, align 8, !tbaa !9
  %233 = load ptr, ptr %12, align 8, !tbaa !9
  %234 = getelementptr inbounds nuw %struct._zend_op, ptr %233, i32 0, i32 2
  %235 = load i32, ptr %234, align 4, !tbaa !19
  %236 = sext i32 %235 to i64
  %237 = getelementptr inbounds i8, ptr %232, i64 %236
  br label %247

238:                                              ; preds = %225
  %239 = load ptr, ptr %7, align 8, !tbaa !4
  %240 = getelementptr inbounds nuw %struct._zend_op_array, ptr %239, i32 0, i32 31
  %241 = load ptr, ptr %240, align 8, !tbaa !106
  %242 = load ptr, ptr %12, align 8, !tbaa !9
  %243 = getelementptr inbounds nuw %struct._zend_op, ptr %242, i32 0, i32 2
  %244 = load i32, ptr %243, align 4, !tbaa !19
  %245 = zext i32 %244 to i64
  %246 = getelementptr inbounds nuw %struct._zval_struct, ptr %241, i64 %245
  br label %247

247:                                              ; preds = %238, %231
  %248 = phi ptr [ %237, %231 ], [ %246, %238 ]
  store ptr %248, ptr %13, align 8, !tbaa !107
  %249 = load ptr, ptr %13, align 8, !tbaa !107
  %250 = call zeroext i8 @zval_get_type(ptr noundef %249)
  %251 = zext i8 %250 to i32
  %252 = icmp eq i32 %251, 4
  br i1 %252, label %253, label %265

253:                                              ; preds = %247
  %254 = load ptr, ptr %13, align 8, !tbaa !107
  %255 = getelementptr inbounds nuw %struct._zval_struct, ptr %254, i32 0, i32 0
  %256 = load i64, ptr %255, align 8, !tbaa !19
  %257 = load ptr, ptr %11, align 8, !tbaa !74
  store i64 %256, ptr %257, align 8, !tbaa !83
  %258 = load ptr, ptr %12, align 8, !tbaa !9
  %259 = getelementptr inbounds nuw %struct._zend_op, ptr %258, i32 0, i32 1
  %260 = load i32, ptr %259, align 8, !tbaa !19
  %261 = zext i32 %260 to i64
  %262 = udiv i64 %261, 16
  %263 = sub i64 %262, 5
  %264 = trunc i64 %263 to i32
  store i32 %264, ptr %6, align 4
  store i32 1, ptr %14, align 4
  br label %272

265:                                              ; preds = %247
  br label %266

266:                                              ; preds = %265, %219, %213
  br label %267

267:                                              ; preds = %266, %207
  br label %268

268:                                              ; preds = %267, %206
  br label %269

269:                                              ; preds = %268, %80
  br label %270

270:                                              ; preds = %269, %58
  br label %271

271:                                              ; preds = %270, %16
  store i32 -1, ptr %6, align 4
  store i32 1, ptr %14, align 4
  br label %272

272:                                              ; preds = %271, %253, %191, %132, %71, %49
  call void @llvm.lifetime.end.p0(i64 8, ptr %13) #13
  call void @llvm.lifetime.end.p0(i64 8, ptr %12) #13
  %273 = load i32, ptr %6, align 4
  ret i32 %273
}