; Function Attrs: nofree norecurse nosync nounwind memory(read, argmem: readwrite, inaccessiblemem: none) uwtable
define internal fastcc range(i32 -5, 268435451) i32 @find_adjusted_tmp_var(ptr noundef readonly captures(none) %0, ptr noundef readonly captures(address) %1, i32 noundef %2, ptr noundef nonnull writeonly captures(none) %3) unnamed_addr #13 {
  %5 = getelementptr inbounds nuw i8, ptr %0, i64 104
  %6 = load ptr, ptr %5, align 8, !tbaa !69
  %.not65 = icmp eq ptr %1, %6
  br i1 %.not65, label %.thread63, label %.lr.ph

.lr.ph:                                           ; preds = %4, %13
  %.066 = phi ptr [ %7, %13 ], [ %1, %4 ]
  %7 = getelementptr inbounds i8, ptr %.066, i64 -32
  %8 = getelementptr inbounds i8, ptr %.066, i64 -1
  %9 = load i8, ptr %8, align 1, !tbaa !16
  %.not56 = icmp eq i8 %9, 2
  br i1 %.not56, label %10, label %13

10:                                               ; preds = %.lr.ph
  %11 = getelementptr inbounds i8, ptr %.066, i64 -16
  %12 = load i32, ptr %11, align 8, !tbaa !10
  %.not57 = icmp eq i32 %12, %2
  br i1 %.not57, label %14, label %13

13:                                               ; preds = %10, %.lr.ph
  %.not = icmp eq ptr %7, %6
  br i1 %.not, label %.thread63, label %.lr.ph

14:                                               ; preds = %10
  %15 = getelementptr inbounds i8, ptr %.066, i64 -4
  %16 = load i8, ptr %15, align 4, !tbaa !17
  switch i8 %16, label %.thread63 [
    i8 37, label %17
    i8 36, label %26
    i8 1, label %35
    i8 2, label %104
  ]

17:                                               ; preds = %14
  %18 = getelementptr inbounds i8, ptr %.066, i64 -3
  %19 = load i8, ptr %18, align 1, !tbaa !4
  %20 = icmp eq i8 %19, 8
  br i1 %20, label %21, label %.thread63

21:                                               ; preds = %17
  store i64 -1, ptr %3, align 8, !tbaa !80
  %22 = getelementptr inbounds i8, ptr %.066, i64 -24
  %23 = load i32, ptr %22, align 8, !tbaa !10
  %24 = lshr i32 %23, 4
  %25 = add nsw i32 %24, -5
  br label %.thread63

26:                                               ; preds = %14
  %27 = getelementptr inbounds i8, ptr %.066, i64 -3
  %28 = load i8, ptr %27, align 1, !tbaa !4
  %29 = icmp eq i8 %28, 8
  br i1 %29, label %30, label %.thread63

30:                                               ; preds = %26
  store i64 1, ptr %3, align 8, !tbaa !80
  %31 = getelementptr inbounds i8, ptr %.066, i64 -24
  %32 = load i32, ptr %31, align 8, !tbaa !10
  %33 = lshr i32 %32, 4
  %34 = add nsw i32 %33, -5
  br label %.thread63

35:                                               ; preds = %14
  %36 = getelementptr inbounds i8, ptr %.066, i64 -3
  %37 = load i8, ptr %36, align 1, !tbaa !4
  %38 = icmp eq i8 %37, 8
  %39 = getelementptr inbounds i8, ptr %.066, i64 -2
  %40 = load i8, ptr %39, align 2, !tbaa !14
  br i1 %38, label %41, label %72

41:                                               ; preds = %35
  %42 = icmp eq i8 %40, 1
  br i1 %42, label %43, label %.thread63

43:                                               ; preds = %41
  %44 = getelementptr inbounds nuw i8, ptr %0, i64 4
  %45 = load i32, ptr %44, align 4, !tbaa !22
  %46 = and i32 %45, 33554432
  %.not61 = icmp eq i32 %46, 0
  br i1 %.not61, label %52, label %47

47:                                               ; preds = %43
  %48 = getelementptr inbounds i8, ptr %.066, i64 -20
  %49 = load i32, ptr %48, align 4, !tbaa !10
  %50 = sext i32 %49 to i64
  %51 = getelementptr inbounds i8, ptr %7, i64 %50
  br label %59

52:                                               ; preds = %43
  %53 = getelementptr inbounds nuw i8, ptr %0, i64 192
  %54 = load ptr, ptr %53, align 8, !tbaa !82
  %55 = getelementptr inbounds i8, ptr %.066, i64 -20
  %56 = load i32, ptr %55, align 4, !tbaa !10
  %57 = zext i32 %56 to i64
  %58 = getelementptr inbounds nuw %struct._zval_struct, ptr %54, i64 %57
  br label %59

59:                                               ; preds = %52, %47
  %60 = phi ptr [ %51, %47 ], [ %58, %52 ]
  %61 = getelementptr inbounds nuw i8, ptr %60, i64 8
  %62 = load i8, ptr %61, align 8, !tbaa !10
  %63 = icmp eq i8 %62, 4
  br i1 %63, label %64, label %.thread63

64:                                               ; preds = %59
  %65 = load i64, ptr %60, align 8, !tbaa !10
  %.not62 = icmp eq i64 %65, -9223372036854775808
  br i1 %.not62, label %.thread63, label %66

66:                                               ; preds = %64
  %67 = sub nsw i64 0, %65
  store i64 %67, ptr %3, align 8, !tbaa !80
  %68 = getelementptr inbounds i8, ptr %.066, i64 -24
  %69 = load i32, ptr %68, align 8, !tbaa !10
  %70 = lshr i32 %69, 4
  %71 = add nsw i32 %70, -5
  br label %.thread63

72:                                               ; preds = %35
  %73 = icmp eq i8 %40, 8
  %74 = icmp eq i8 %37, 1
  %or.cond = and i1 %74, %73
  br i1 %or.cond, label %75, label %.thread63

75:                                               ; preds = %72
  %76 = getelementptr inbounds nuw i8, ptr %0, i64 4
  %77 = load i32, ptr %76, align 4, !tbaa !22
  %78 = and i32 %77, 33554432
  %.not59 = icmp eq i32 %78, 0
  br i1 %.not59, label %84, label %79

79:                                               ; preds = %75
  %80 = getelementptr inbounds i8, ptr %.066, i64 -24
  %81 = load i32, ptr %80, align 8, !tbaa !10
  %82 = sext i32 %81 to i64
  %83 = getelementptr inbounds i8, ptr %7, i64 %82
  br label %91

84:                                               ; preds = %75
  %85 = getelementptr inbounds nuw i8, ptr %0, i64 192
  %86 = load ptr, ptr %85, align 8, !tbaa !82
  %87 = getelementptr inbounds i8, ptr %.066, i64 -24
  %88 = load i32, ptr %87, align 8, !tbaa !10
  %89 = zext i32 %88 to i64
  %90 = getelementptr inbounds nuw %struct._zval_struct, ptr %86, i64 %89
  br label %91

91:                                               ; preds = %84, %79
  %92 = phi ptr [ %83, %79 ], [ %90, %84 ]
  %93 = getelementptr inbounds nuw i8, ptr %92, i64 8
  %94 = load i8, ptr %93, align 8, !tbaa !10
  %95 = icmp eq i8 %94, 4
  br i1 %95, label %96, label %.thread63

96:                                               ; preds = %91
  %97 = load i64, ptr %92, align 8, !tbaa !10
  %.not60 = icmp eq i64 %97, -9223372036854775808
  br i1 %.not60, label %.thread63, label %98

98:                                               ; preds = %96
  %99 = sub nsw i64 0, %97
  store i64 %99, ptr %3, align 8, !tbaa !80
  %100 = getelementptr inbounds i8, ptr %.066, i64 -20
  %101 = load i32, ptr %100, align 4, !tbaa !10
  %102 = lshr i32 %101, 4
  %103 = add nsw i32 %102, -5
  br label %.thread63

104:                                              ; preds = %14
  %105 = getelementptr inbounds i8, ptr %.066, i64 -3
  %106 = load i8, ptr %105, align 1, !tbaa !4
  %107 = icmp eq i8 %106, 8
  br i1 %107, label %108, label %.thread63

108:                                              ; preds = %104
  %109 = getelementptr inbounds i8, ptr %.066, i64 -2
  %110 = load i8, ptr %109, align 2, !tbaa !14
  %111 = icmp eq i8 %110, 1
  br i1 %111, label %112, label %.thread63

112:                                              ; preds = %108
  %113 = getelementptr inbounds nuw i8, ptr %0, i64 4
  %114 = load i32, ptr %113, align 4, !tbaa !22
  %115 = and i32 %114, 33554432
  %.not58 = icmp eq i32 %115, 0
  br i1 %.not58, label %121, label %116

116:                                              ; preds = %112
  %117 = getelementptr inbounds i8, ptr %.066, i64 -20
  %118 = load i32, ptr %117, align 4, !tbaa !10
  %119 = sext i32 %118 to i64
  %120 = getelementptr inbounds i8, ptr %7, i64 %119
  br label %128

121:                                              ; preds = %112
  %122 = getelementptr inbounds nuw i8, ptr %0, i64 192
  %123 = load ptr, ptr %122, align 8, !tbaa !82
  %124 = getelementptr inbounds i8, ptr %.066, i64 -20
  %125 = load i32, ptr %124, align 4, !tbaa !10
  %126 = zext i32 %125 to i64
  %127 = getelementptr inbounds nuw %struct._zval_struct, ptr %123, i64 %126
  br label %128

128:                                              ; preds = %121, %116
  %129 = phi ptr [ %120, %116 ], [ %127, %121 ]
  %130 = getelementptr inbounds nuw i8, ptr %129, i64 8
  %131 = load i8, ptr %130, align 8, !tbaa !10
  %132 = icmp eq i8 %131, 4
  br i1 %132, label %133, label %.thread63

133:                                              ; preds = %128
  %134 = load i64, ptr %129, align 8, !tbaa !10
  store i64 %134, ptr %3, align 8, !tbaa !80
  %135 = getelementptr inbounds i8, ptr %.066, i64 -24
  %136 = load i32, ptr %135, align 8, !tbaa !10
  %137 = lshr i32 %136, 4
  %138 = add nsw i32 %137, -5
  br label %.thread63

.thread63:                                        ; preds = %13, %4, %41, %26, %128, %108, %104, %64, %59, %91, %96, %72, %17, %14, %133, %98, %66, %30, %21
  %.052 = phi i32 [ %25, %21 ], [ %34, %30 ], [ %71, %66 ], [ %103, %98 ], [ %138, %133 ], [ -1, %14 ], [ -1, %17 ], [ -1, %72 ], [ -1, %96 ], [ -1, %91 ], [ -1, %59 ], [ -1, %64 ], [ -1, %104 ], [ -1, %108 ], [ -1, %128 ], [ -1, %26 ], [ -1, %41 ], [ -1, %4 ], [ -1, %13 ]
  ret i32 %.052
}